target datalayout = "e-m:e-p270:32:32-p271:32:32-p272:64:64-i64:64-i128:128-f80:128-n8:16:32:64-S128"
target triple = "x86_64-unknown-linux-gnu"

%"class.std::unique_ptr.324" = type { %"struct.std::__uniq_ptr_data.325" }
%"struct.std::__uniq_ptr_data.325" = type { %"class.std::__uniq_ptr_impl.326" }
%"class.std::__uniq_ptr_impl.326" = type { %"class.std::tuple.327" }
%"class.std::tuple.327" = type { %"struct.std::_Tuple_impl.328" }
%"struct.std::_Tuple_impl.328" = type { %"struct.std::_Head_base.331" }
%"struct.std::_Head_base.331" = type { ptr }

; Function Attrs: mustprogress nounwind uwtable
define linkonce_odr noundef nonnull align 1 dereferenceable(1) ptr @_ZNSt10_Head_baseILm1ESt14default_deleteIKN7rocksdb12FilterPolicyEELb1EE7_M_headERS5_(ptr noundef nonnull align 1 dereferenceable(1) %__b) #1 comdat align 2 {
entry:
  %__b.addr = alloca ptr, align 8
  store ptr %__b, ptr %__b.addr, align 8
  %0 = load ptr, ptr %__b.addr, align 8
  ret ptr %0
}

; Function Attrs: mustprogress nounwind uwtable
define linkonce_odr noundef nonnull align 8 dereferenceable(8) ptr @_ZNSt10_Head_baseILm0EPKN7rocksdb12FilterPolicyELb0EE7_M_headERS4_(ptr noundef nonnull align 8 dereferenceable(8) %__b) #1 comdat align 2 {
entry:
  %__b.addr = alloca ptr, align 8
  store ptr %__b, ptr %__b.addr, align 8
  %0 = load ptr, ptr %__b.addr, align 8
  %_M_head_impl = getelementptr inbounds %"struct.std::_Head_base.331", ptr %0, i32 0, i32 0
  ret ptr %_M_head_impl
}

; Function Attrs: mustprogress nounwind uwtable
define linkonce_odr noundef nonnull align 8 dereferenceable(8) ptr @_ZNSt10_Head_baseILm0EPKN7rocksdb12FilterPolicyELb0EE7_M_headERKS4_(ptr noundef nonnull align 8 dereferenceable(8) %__b) #1 comdat align 2 {
entry:
  %__b.addr = alloca ptr, align 8
  store ptr %__b, ptr %__b.addr, align 8
  %0 = load ptr, ptr %__b.addr, align 8
  %_M_head_impl = getelementptr inbounds %"struct.std::_Head_base.331", ptr %0, i32 0, i32 0
  ret ptr %_M_head_impl
}

; Function Attrs: mustprogress nounwind uwtable
define linkonce_odr noundef nonnull align 1 dereferenceable(1) ptr @_ZNSt11_Tuple_implILm1EJSt14default_deleteIKN7rocksdb12FilterPolicyEEEE7_M_headERS5_(ptr noundef nonnull align 1 dereferenceable(1) %__t) #1 comdat align 2 {
entry:
  %__t.addr = alloca ptr, align 8
  store ptr %__t, ptr %__t.addr, align 8
  %0 = load ptr, ptr %__t.addr, align 8
  %call = call noundef nonnull align 1 dereferenceable(1) ptr @_ZNSt10_Head_baseILm1ESt14default_deleteIKN7rocksdb12FilterPolicyEELb1EE7_M_headERS5_(ptr noundef nonnull align 1 dereferenceable(1) %0) #3
  ret ptr %call
}

; Function Attrs: mustprogress nounwind uwtable
define linkonce_odr noundef nonnull align 8 dereferenceable(8) ptr @_ZNSt11_Tuple_implILm0EJPKN7rocksdb12FilterPolicyESt14default_deleteIS2_EEE7_M_headERS6_(ptr noundef nonnull align 8 dereferenceable(8) %__t) #1 comdat align 2 {
entry:
  %__t.addr = alloca ptr, align 8
  store ptr %__t, ptr %__t.addr, align 8
  %0 = load ptr, ptr %__t.addr, align 8
  %call = call noundef nonnull align 8 dereferenceable(8) ptr @_ZNSt10_Head_baseILm0EPKN7rocksdb12FilterPolicyELb0EE7_M_headERS4_(ptr noundef nonnull align 8 dereferenceable(8) %0) #3
  ret ptr %call
}

; Function Attrs: mustprogress nounwind uwtable
define linkonce_odr noundef nonnull align 8 dereferenceable(8) ptr @_ZNSt11_Tuple_implILm0EJPKN7rocksdb12FilterPolicyESt14default_deleteIS2_EEE7_M_headERKS6_(ptr noundef nonnull align 8 dereferenceable(8) %__t) #1 comdat align 2 {
entry:
  %__t.addr = alloca ptr, align 8
  store ptr %__t, ptr %__t.addr, align 8
  %0 = load ptr, ptr %__t.addr, align 8
  %call = call noundef nonnull align 8 dereferenceable(8) ptr @_ZNSt10_Head_baseILm0EPKN7rocksdb12FilterPolicyELb0EE7_M_headERKS4_(ptr noundef nonnull align 8 dereferenceable(8) %0) #3
  ret ptr %call
}

; Function Attrs: mustprogress nounwind uwtable
define linkonce_odr noundef nonnull align 1 dereferenceable(1) ptr @_ZSt12__get_helperILm1ESt14default_deleteIKN7rocksdb12FilterPolicyEEJEERT0_RSt11_Tuple_implIXT_EJS5_DpT1_EE(ptr noundef nonnull align 1 dereferenceable(1) %__t) #1 comdat {
entry:
  %__t.addr = alloca ptr, align 8
  store ptr %__t, ptr %__t.addr, align 8
  %0 = load ptr, ptr %__t.addr, align 8
  %call = call noundef nonnull align 1 dereferenceable(1) ptr @_ZNSt11_Tuple_implILm1EJSt14default_deleteIKN7rocksdb12FilterPolicyEEEE7_M_headERS5_(ptr noundef nonnull align 1 dereferenceable(1) %0) #3
  ret ptr %call
}

; Function Attrs: mustprogress nounwind uwtable
define linkonce_odr noundef nonnull align 8 dereferenceable(8) ptr @_ZSt12__get_helperILm0EPKN7rocksdb12FilterPolicyEJSt14default_deleteIS2_EEERT0_RSt11_Tuple_implIXT_EJS6_DpT1_EE(ptr noundef nonnull align 8 dereferenceable(8) %__t) #1 comdat {
entry:
  %__t.addr = alloca ptr, align 8
  store ptr %__t, ptr %__t.addr, align 8
  %0 = load ptr, ptr %__t.addr, align 8
  %call = call noundef nonnull align 8 dereferenceable(8) ptr @_ZNSt11_Tuple_implILm0EJPKN7rocksdb12FilterPolicyESt14default_deleteIS2_EEE7_M_headERS6_(ptr noundef nonnull align 8 dereferenceable(8) %0) #3
  ret ptr %call
}

; Function Attrs: mustprogress nounwind uwtable
define linkonce_odr noundef nonnull align 8 dereferenceable(8) ptr @_ZSt12__get_helperILm0EPKN7rocksdb12FilterPolicyEJSt14default_deleteIS2_EEERKT0_RKSt11_Tuple_implIXT_EJS6_DpT1_EE(ptr noundef nonnull align 8 dereferenceable(8) %__t) #1 comdat {
entry:
  %__t.addr = alloca ptr, align 8
  store ptr %__t, ptr %__t.addr, align 8
  %0 = load ptr, ptr %__t.addr, align 8
  %call = call noundef nonnull align 8 dereferenceable(8) ptr @_ZNSt11_Tuple_implILm0EJPKN7rocksdb12FilterPolicyESt14default_deleteIS2_EEE7_M_headERKS6_(ptr noundef nonnull align 8 dereferenceable(8) %0) #3
  ret ptr %call
}

; Function Attrs: mustprogress nounwind uwtable
define linkonce_odr noundef nonnull align 1 dereferenceable(1) ptr @_ZSt3getILm1EJPKN7rocksdb12FilterPolicyESt14default_deleteIS2_EEERNSt13tuple_elementIXT_ESt5tupleIJDpT0_EEE4typeERSA_(ptr noundef nonnull align 8 dereferenceable(8) %__t) #1 comdat {
entry:
  %__t.addr = alloca ptr, align 8
  store ptr %__t, ptr %__t.addr, align 8
  %0 = load ptr, ptr %__t.addr, align 8
  %call = call noundef nonnull align 1 dereferenceable(1) ptr @_ZSt12__get_helperILm1ESt14default_deleteIKN7rocksdb12FilterPolicyEEJEERT0_RSt11_Tuple_implIXT_EJS5_DpT1_EE(ptr noundef nonnull align 1 dereferenceable(1) %0) #3
  ret ptr %call
}

; Function Attrs: mustprogress nounwind uwtable
define linkonce_odr noundef nonnull align 8 dereferenceable(8) ptr @_ZSt3getILm0EJPKN7rocksdb12FilterPolicyESt14default_deleteIS2_EEERNSt13tuple_elementIXT_ESt5tupleIJDpT0_EEE4typeERSA_(ptr noundef nonnull align 8 dereferenceable(8) %__t) #1 comdat {
entry:
  %__t.addr = alloca ptr, align 8
  store ptr %__t, ptr %__t.addr, align 8
  %0 = load ptr, ptr %__t.addr, align 8
  %call = call noundef nonnull align 8 dereferenceable(8) ptr @_ZSt12__get_helperILm0EPKN7rocksdb12FilterPolicyEJSt14default_deleteIS2_EEERT0_RSt11_Tuple_implIXT_EJS6_DpT1_EE(ptr noundef nonnull align 8 dereferenceable(8) %0) #3
  ret ptr %call
}

; Function Attrs: mustprogress nounwind uwtable
define linkonce_odr noundef nonnull align 8 dereferenceable(8) ptr @_ZSt3getILm0EJPKN7rocksdb12FilterPolicyESt14default_deleteIS2_EEERKNSt13tuple_elementIXT_ESt5tupleIJDpT0_EEE4typeERKSA_(ptr noundef nonnull align 8 dereferenceable(8) %__t) #1 comdat {
entry:
  %__t.addr = alloca ptr, align 8
  store ptr %__t, ptr %__t.addr, align 8
  %0 = load ptr, ptr %__t.addr, align 8
  %call = call noundef nonnull align 8 dereferenceable(8) ptr @_ZSt12__get_helperILm0EPKN7rocksdb12FilterPolicyEJSt14default_deleteIS2_EEERKT0_RKSt11_Tuple_implIXT_EJS6_DpT1_EE(ptr noundef nonnull align 8 dereferenceable(8) %0) #3
  ret ptr %call
}

; Function Attrs: noreturn nounwind uwtable
define linkonce_odr hidden void @__clang_call_terminate(ptr noundef %0) #13 comdat {
  %2 = call ptr @__cxa_begin_catch(ptr %0) #3
  call void @_ZSt9terminatev() #19
  unreachable
}

; Function Attrs: mustprogress nounwind uwtable
define linkonce_odr void @_ZNKSt14default_deleteIKN7rocksdb12FilterPolicyEEclEPS2_(ptr noundef nonnull align 1 dereferenceable(1) %this, ptr noundef %__ptr) #1 comdat align 2 {
entry:
  %this.addr = alloca ptr, align 8
  %__ptr.addr = alloca ptr, align 8
  store ptr %this, ptr %this.addr, align 8
  store ptr %__ptr, ptr %__ptr.addr, align 8
  %0 = load ptr, ptr %__ptr.addr, align 8
  %isnull = icmp eq ptr %0, null
  br i1 %isnull, label %delete.end, label %delete.notnull

delete.notnull:                                   ; preds = %entry
  %vtable = load ptr, ptr %0, align 8
  %vfn = getelementptr inbounds ptr, ptr %vtable, i64 1
  %1 = load ptr, ptr %vfn, align 8
  call void %1(ptr noundef nonnull align 8 dereferenceable(32) %0) #3
  br label %delete.end

delete.end:                                       ; preds = %delete.notnull, %entry
  ret void
}

; Function Attrs: mustprogress nounwind uwtable
define linkonce_odr noundef nonnull align 1 dereferenceable(1) ptr @_ZNSt15__uniq_ptr_implIKN7rocksdb12FilterPolicyESt14default_deleteIS2_EE10_M_deleterEv(ptr noundef nonnull align 8 dereferenceable(8) %this) #1 comdat align 2 {
entry:
  %this.addr = alloca ptr, align 8
  store ptr %this, ptr %this.addr, align 8
  %this1 = load ptr, ptr %this.addr, align 8
  %_M_t = getelementptr inbounds %"class.std::__uniq_ptr_impl.326", ptr %this1, i32 0, i32 0
  %call = call noundef nonnull align 1 dereferenceable(1) ptr @_ZSt3getILm1EJPKN7rocksdb12FilterPolicyESt14default_deleteIS2_EEERNSt13tuple_elementIXT_ESt5tupleIJDpT0_EEE4typeERSA_(ptr noundef nonnull align 8 dereferenceable(8) %_M_t) #3
  ret ptr %call
}

; Function Attrs: mustprogress nounwind uwtable
define linkonce_odr noundef nonnull align 8 dereferenceable(8) ptr @_ZNSt15__uniq_ptr_implIKN7rocksdb12FilterPolicyESt14default_deleteIS2_EE6_M_ptrEv(ptr noundef nonnull align 8 dereferenceable(8) %this) #1 comdat align 2 {
entry:
  %this.addr = alloca ptr, align 8
  store ptr %this, ptr %this.addr, align 8
  %this1 = load ptr, ptr %this.addr, align 8
  %_M_t = getelementptr inbounds %"class.std::__uniq_ptr_impl.326", ptr %this1, i32 0, i32 0
  %call = call noundef nonnull align 8 dereferenceable(8) ptr @_ZSt3getILm0EJPKN7rocksdb12FilterPolicyESt14default_deleteIS2_EEERNSt13tuple_elementIXT_ESt5tupleIJDpT0_EEE4typeERSA_(ptr noundef nonnull align 8 dereferenceable(8) %_M_t) #3
  ret ptr %call
}

; Function Attrs: mustprogress nounwind uwtable
define linkonce_odr noundef ptr @_ZNKSt15__uniq_ptr_implIKN7rocksdb12FilterPolicyESt14default_deleteIS2_EE6_M_ptrEv(ptr noundef nonnull align 8 dereferenceable(8) %this) #1 comdat align 2 {
entry:
  %this.addr = alloca ptr, align 8
  store ptr %this, ptr %this.addr, align 8
  %this1 = load ptr, ptr %this.addr, align 8
  %_M_t = getelementptr inbounds %"class.std::__uniq_ptr_impl.326", ptr %this1, i32 0, i32 0
  %call = call noundef nonnull align 8 dereferenceable(8) ptr @_ZSt3getILm0EJPKN7rocksdb12FilterPolicyESt14default_deleteIS2_EEERKNSt13tuple_elementIXT_ESt5tupleIJDpT0_EEE4typeERKSA_(ptr noundef nonnull align 8 dereferenceable(8) %_M_t) #3
  %0 = load ptr, ptr %call, align 8
  ret ptr %0
}

; Function Attrs: mustprogress nounwind uwtable
define linkonce_odr void @_ZNSt15__uniq_ptr_implIKN7rocksdb12FilterPolicyESt14default_deleteIS2_EE5resetEPS2_(ptr noundef nonnull align 8 dereferenceable(8) %this, ptr noundef %__p) #1 comdat align 2 personality ptr @__gxx_personality_v0 {
entry:
  %this.addr = alloca ptr, align 8
  %__p.addr = alloca ptr, align 8
  %__old_p = alloca ptr, align 8
  store ptr %this, ptr %this.addr, align 8
  store ptr %__p, ptr %__p.addr, align 8
  %this1 = load ptr, ptr %this.addr, align 8
  %call = call noundef nonnull align 8 dereferenceable(8) ptr @_ZNSt15__uniq_ptr_implIKN7rocksdb12FilterPolicyESt14default_deleteIS2_EE6_M_ptrEv(ptr noundef nonnull align 8 dereferenceable(8) %this1) #3
  %0 = load ptr, ptr %call, align 8
  store ptr %0, ptr %__old_p, align 8
  %1 = load ptr, ptr %__p.addr, align 8
  %call2 = call noundef nonnull align 8 dereferenceable(8) ptr @_ZNSt15__uniq_ptr_implIKN7rocksdb12FilterPolicyESt14default_deleteIS2_EE6_M_ptrEv(ptr noundef nonnull align 8 dereferenceable(8) %this1) #3
  store ptr %1, ptr %call2, align 8
  %2 = load ptr, ptr %__old_p, align 8
  %tobool = icmp ne ptr %2, null
  br i1 %tobool, label %if.then, label %if.end

if.then:                                          ; preds = %entry
  %call3 = call noundef nonnull align 1 dereferenceable(1) ptr @_ZNSt15__uniq_ptr_implIKN7rocksdb12FilterPolicyESt14default_deleteIS2_EE10_M_deleterEv(ptr noundef nonnull align 8 dereferenceable(8) %this1) #3
  %3 = load ptr, ptr %__old_p, align 8
  invoke void @_ZNKSt14default_deleteIKN7rocksdb12FilterPolicyEEclEPS2_(ptr noundef nonnull align 1 dereferenceable(1) %call3, ptr noundef %3)
          to label %invoke.cont unwind label %terminate.lpad

invoke.cont:                                      ; preds = %if.then
  br label %if.end

if.end:                                           ; preds = %invoke.cont, %entry
  ret void

terminate.lpad:                                   ; preds = %if.then
  %4 = landingpad { ptr, i32 }
          catch ptr null
  %5 = extractvalue { ptr, i32 } %4, 0
  call void @__clang_call_terminate(ptr %5) #19
  unreachable
}

; Function Attrs: mustprogress nounwind uwtable
define linkonce_odr noundef ptr @_ZNKSt10unique_ptrIKN7rocksdb12FilterPolicyESt14default_deleteIS2_EE3getEv(ptr noundef nonnull align 8 dereferenceable(8) %this) #1 comdat align 2 {
entry:
  %this.addr = alloca ptr, align 8
  store ptr %this, ptr %this.addr, align 8
  %this1 = load ptr, ptr %this.addr, align 8
  %_M_t = getelementptr inbounds %"class.std::unique_ptr.324", ptr %this1, i32 0, i32 0
  %call = call noundef ptr @_ZNKSt15__uniq_ptr_implIKN7rocksdb12FilterPolicyESt14default_deleteIS2_EE6_M_ptrEv(ptr noundef nonnull align 8 dereferenceable(8) %_M_t) #3
  ret ptr %call
}

; Function Attrs: mustprogress nounwind uwtable
define linkonce_odr void @_ZNSt10unique_ptrIKN7rocksdb12FilterPolicyESt14default_deleteIS2_EE5resetEPS2_(ptr noundef nonnull align 8 dereferenceable(8) %this, ptr noundef %__p) #1 comdat align 2 {
entry:
  %this.addr = alloca ptr, align 8
  %__p.addr = alloca ptr, align 8
  store ptr %this, ptr %this.addr, align 8
  store ptr %__p, ptr %__p.addr, align 8
  %this1 = load ptr, ptr %this.addr, align 8
  %_M_t = getelementptr inbounds %"class.std::unique_ptr.324", ptr %this1, i32 0, i32 0
  %0 = load ptr, ptr %__p.addr, align 8
  call void @_ZNSt15__uniq_ptr_implIKN7rocksdb12FilterPolicyESt14default_deleteIS2_EE5resetEPS2_(ptr noundef nonnull align 8 dereferenceable(8) %_M_t, ptr noundef %0) #3
  ret void
}

; Function Attrs: mustprogress uwtable
define internal noundef ptr @"_ZZN7rocksdb12_GLOBAL__N_129RegisterBuiltinFilterPoliciesERNS_13ObjectLibraryERKNSt7__cxx1112basic_stringIcSt11char_traitsIcESaIcEEEENK3$_2clESA_PSt10unique_ptrIKNS_12FilterPolicyESt14default_deleteISE_EEPS8_"(ptr noundef nonnull align 1 dereferenceable(1) %this, ptr noundef nonnull align 8 dereferenceable(32) %uri, ptr noundef %guard, ptr noundef %0) #0 align 2 {
entry:
  %this.addr = alloca ptr, align 8
  %uri.addr = alloca ptr, align 8
  %guard.addr = alloca ptr, align 8
  %.addr = alloca ptr, align 8
  store ptr %this, ptr %this.addr, align 8
  store ptr %uri, ptr %uri.addr, align 8
  store ptr %guard, ptr %guard.addr, align 8
  store ptr %0, ptr %.addr, align 8
  %1 = load ptr, ptr %guard.addr, align 8
  %2 = load ptr, ptr %uri.addr, align 8
  %call = call noundef ptr @_ZN7rocksdb12_GLOBAL__N_130NewBuiltinFilterPolicyWithBitsINS_17BloomFilterPolicyEEEPT_RKNSt7__cxx1112basic_stringIcSt11char_traitsIcESaIcEEE(ptr noundef nonnull align 8 dereferenceable(32) %2)
  call void @_ZNSt10unique_ptrIKN7rocksdb12FilterPolicyESt14default_deleteIS2_EE5resetEPS2_(ptr noundef nonnull align 8 dereferenceable(8) %1, ptr noundef %call) #3
  %3 = load ptr, ptr %guard.addr, align 8
  %call2 = call noundef ptr @_ZNKSt10unique_ptrIKN7rocksdb12FilterPolicyESt14default_deleteIS2_EE3getEv(ptr noundef nonnull align 8 dereferenceable(8) %3) #3
  ret ptr %call2
}

; Function Attrs: mustprogress nounwind uwtable
define linkonce_odr noundef ptr @_ZNKSt9_Any_data9_M_accessEv(ptr noundef nonnull align 8 dereferenceable(16) %this) #1 comdat align 2 {
entry:
  %this.addr = alloca ptr, align 8
  store ptr %this, ptr %this.addr, align 8
  %this1 = load ptr, ptr %this.addr, align 8
  %arrayidx = getelementptr inbounds [16 x i8], ptr %this1, i64 0, i64 0
  ret ptr %arrayidx
}

; Function Attrs: mustprogress uwtable
define internal noundef ptr @"_ZSt13__invoke_implIPKN7rocksdb12FilterPolicyERZNS0_12_GLOBAL__N_129RegisterBuiltinFilterPoliciesERNS0_13ObjectLibraryERKNSt7__cxx1112basic_stringIcSt11char_traitsIcESaIcEEEE3$_2JSE_PSt10unique_ptrIS2_St14default_deleteIS2_EEPSC_EET_St14__invoke_otherOT0_DpOT1_"(ptr noundef nonnull align 1 dereferenceable(1) %__f, ptr noundef nonnull align 8 dereferenceable(32) %__args, ptr noundef nonnull align 8 dereferenceable(8) %__args1, ptr noundef nonnull align 8 dereferenceable(8) %__args3) #0 {
entry:
  %__f.addr = alloca ptr, align 8
  %__args.addr = alloca ptr, align 8
  %__args.addr2 = alloca ptr, align 8
  %__args.addr4 = alloca ptr, align 8
  store ptr %__f, ptr %__f.addr, align 8
  store ptr %__args, ptr %__args.addr, align 8
  store ptr %__args1, ptr %__args.addr2, align 8
  store ptr %__args3, ptr %__args.addr4, align 8
  %0 = load ptr, ptr %__f.addr, align 8
  %1 = load ptr, ptr %__args.addr, align 8
  %2 = load ptr, ptr %__args.addr2, align 8
  %3 = load ptr, ptr %2, align 8
  %4 = load ptr, ptr %__args.addr4, align 8
  %5 = load ptr, ptr %4, align 8
  %call = call noundef ptr @"_ZZN7rocksdb12_GLOBAL__N_129RegisterBuiltinFilterPoliciesERNS_13ObjectLibraryERKNSt7__cxx1112basic_stringIcSt11char_traitsIcESaIcEEEENK3$_2clESA_PSt10unique_ptrIKNS_12FilterPolicyESt14default_deleteISE_EEPS8_"(ptr noundef nonnull align 1 dereferenceable(1) %0, ptr noundef nonnull align 8 dereferenceable(32) %1, ptr noundef %3, ptr noundef %5)
  ret ptr %call
}

; Function Attrs: mustprogress nounwind uwtable
define internal noundef nonnull align 1 dereferenceable(1) ptr @"_ZNKSt9_Any_data9_M_accessIZN7rocksdb12_GLOBAL__N_129RegisterBuiltinFilterPoliciesERNS1_13ObjectLibraryERKNSt7__cxx1112basic_stringIcSt11char_traitsIcESaIcEEEE3$_2EERKT_v"(ptr noundef nonnull align 8 dereferenceable(16) %this) #1 align 2 {
entry:
  %this.addr = alloca ptr, align 8
  store ptr %this, ptr %this.addr, align 8
  %this1 = load ptr, ptr %this.addr, align 8
  %call = call noundef ptr @_ZNKSt9_Any_data9_M_accessEv(ptr noundef nonnull align 8 dereferenceable(16) %this1) #3
  ret ptr %call
}

; Function Attrs: mustprogress uwtable
define internal noundef ptr @"_ZSt10__invoke_rIPKN7rocksdb12FilterPolicyERZNS0_12_GLOBAL__N_129RegisterBuiltinFilterPoliciesERNS0_13ObjectLibraryERKNSt7__cxx1112basic_stringIcSt11char_traitsIcESaIcEEEE3$_2JSE_PSt10unique_ptrIS2_St14default_deleteIS2_EEPSC_EENSt9enable_ifIX16is_invocable_r_vIT_T0_DpT1_EESO_E4typeEOSP_DpOSQ_"(ptr noundef nonnull align 1 dereferenceable(1) %__fn, ptr noundef nonnull align 8 dereferenceable(32) %__args, ptr noundef nonnull align 8 dereferenceable(8) %__args1, ptr noundef nonnull align 8 dereferenceable(8) %__args3) #0 {
entry:
  %__fn.addr = alloca ptr, align 8
  %__args.addr = alloca ptr, align 8
  %__args.addr2 = alloca ptr, align 8
  %__args.addr4 = alloca ptr, align 8
  store ptr %__fn, ptr %__fn.addr, align 8
  store ptr %__args, ptr %__args.addr, align 8
  store ptr %__args1, ptr %__args.addr2, align 8
  store ptr %__args3, ptr %__args.addr4, align 8
  %0 = load ptr, ptr %__fn.addr, align 8
  %1 = load ptr, ptr %__args.addr, align 8
  %2 = load ptr, ptr %__args.addr2, align 8
  %3 = load ptr, ptr %__args.addr4, align 8
  %call = call noundef ptr @"_ZSt13__invoke_implIPKN7rocksdb12FilterPolicyERZNS0_12_GLOBAL__N_129RegisterBuiltinFilterPoliciesERNS0_13ObjectLibraryERKNSt7__cxx1112basic_stringIcSt11char_traitsIcESaIcEEEE3$_2JSE_PSt10unique_ptrIS2_St14default_deleteIS2_EEPSC_EET_St14__invoke_otherOT0_DpOT1_"(ptr noundef nonnull align 1 dereferenceable(1) %0, ptr noundef nonnull align 8 dereferenceable(32) %1, ptr noundef nonnull align 8 dereferenceable(8) %2, ptr noundef nonnull align 8 dereferenceable(8) %3)
  ret ptr %call
}

; Function Attrs: mustprogress nounwind uwtable
define internal noundef ptr @"_ZNSt14_Function_base13_Base_managerIZN7rocksdb12_GLOBAL__N_129RegisterBuiltinFilterPoliciesERNS1_13ObjectLibraryERKNSt7__cxx1112basic_stringIcSt11char_traitsIcESaIcEEEE3$_2E14_M_get_pointerERKSt9_Any_data"(ptr noundef nonnull align 8 dereferenceable(16) %__source) #1 align 2 {
entry:
  %__source.addr = alloca ptr, align 8
  %__f = alloca ptr, align 8
  store ptr %__source, ptr %__source.addr, align 8
  %0 = load ptr, ptr %__source.addr, align 8
  %call = call noundef nonnull align 1 dereferenceable(1) ptr @"_ZNKSt9_Any_data9_M_accessIZN7rocksdb12_GLOBAL__N_129RegisterBuiltinFilterPoliciesERNS1_13ObjectLibraryERKNSt7__cxx1112basic_stringIcSt11char_traitsIcESaIcEEEE3$_2EERKT_v"(ptr noundef nonnull align 8 dereferenceable(16) %0) #3
  store ptr %call, ptr %__f, align 8
  %1 = load ptr, ptr %__f, align 8
  ret ptr %1
}

; Function Attrs: mustprogress uwtable
define internal noundef ptr @"_ZNSt17_Function_handlerIFPKN7rocksdb12FilterPolicyERKNSt7__cxx1112basic_stringIcSt11char_traitsIcESaIcEEEPSt10unique_ptrIS2_St14default_deleteIS2_EEPS9_EZNS0_12_GLOBAL__N_129RegisterBuiltinFilterPoliciesERNS0_13ObjectLibraryESB_E3$_2E9_M_invokeERKSt9_Any_dataSB_OSG_OSH_"(ptr noundef nonnull align 8 dereferenceable(16) %__functor, ptr noundef nonnull align 8 dereferenceable(32) %__args, ptr noundef nonnull align 8 dereferenceable(8) %__args1, ptr noundef nonnull align 8 dereferenceable(8) %__args3) #0 align 2 {
entry:
  %__functor.addr = alloca ptr, align 8
  %__args.addr = alloca ptr, align 8
  %__args.addr2 = alloca ptr, align 8
  %__args.addr4 = alloca ptr, align 8
  store ptr %__functor, ptr %__functor.addr, align 8
  store ptr %__args, ptr %__args.addr, align 8
  store ptr %__args1, ptr %__args.addr2, align 8
  store ptr %__args3, ptr %__args.addr4, align 8
  %0 = load ptr, ptr %__functor.addr, align 8
  %call = call noundef ptr @"_ZNSt14_Function_base13_Base_managerIZN7rocksdb12_GLOBAL__N_129RegisterBuiltinFilterPoliciesERNS1_13ObjectLibraryERKNSt7__cxx1112basic_stringIcSt11char_traitsIcESaIcEEEE3$_2E14_M_get_pointerERKSt9_Any_data"(ptr noundef nonnull align 8 dereferenceable(16) %0) #3
  %1 = load ptr, ptr %__args.addr, align 8
  %2 = load ptr, ptr %__args.addr2, align 8
  %3 = load ptr, ptr %__args.addr4, align 8
  %call5 = call noundef ptr @"_ZSt10__invoke_rIPKN7rocksdb12FilterPolicyERZNS0_12_GLOBAL__N_129RegisterBuiltinFilterPoliciesERNS0_13ObjectLibraryERKNSt7__cxx1112basic_stringIcSt11char_traitsIcESaIcEEEE3$_2JSE_PSt10unique_ptrIS2_St14default_deleteIS2_EEPSC_EENSt9enable_ifIX16is_invocable_r_vIT_T0_DpT1_EESO_E4typeEOSP_DpOSQ_"(ptr noundef nonnull align 1 dereferenceable(1) %call, ptr noundef nonnull align 8 dereferenceable(32) %1, ptr noundef nonnull align 8 dereferenceable(8) %2, ptr noundef nonnull align 8 dereferenceable(8) %3)
  ret ptr %call5
}