; Function Attrs: mustprogress uwtable
define internal noundef ptr @"_ZNSt17_Function_handlerIFPKN7rocksdb12FilterPolicyERKNSt7__cxx1112basic_stringIcSt11char_traitsIcESaIcEEEPSt10unique_ptrIS2_St14default_deleteIS2_EEPS9_EZNS0_12_GLOBAL__N_129RegisterBuiltinFilterPoliciesERNS0_13ObjectLibraryESB_E3$_2E9_M_invokeERKSt9_Any_dataSB_OSG_OSH_"(ptr nocapture nonnull readnone align 8 %__functor, ptr noundef nonnull align 8 dereferenceable(32) %__args, ptr nocapture noundef nonnull readonly align 8 dereferenceable(8) %__args1, ptr nocapture nonnull readnone align 8 %__args3) #3 align 2 personality ptr @__gxx_personality_v0 {
entry:
  %__args1.val = load ptr, ptr %__args1, align 8
  %call.i.i.i = tail call fastcc noundef ptr @_ZN7rocksdb12_GLOBAL__N_130NewBuiltinFilterPolicyWithBitsINS_17BloomFilterPolicyEEEPT_RKNSt7__cxx1112basic_stringIcSt11char_traitsIcESaIcEEE(ptr noundef nonnull align 8 dereferenceable(32) %__args)
  %0 = load ptr, ptr %__args1.val, align 8
  store ptr %call.i.i.i, ptr %__args1.val, align 8
  %tobool.not.i.i.i.i.i = icmp eq ptr %0, null
  br i1 %tobool.not.i.i.i.i.i, label %"_ZSt10__invoke_rIPKN7rocksdb12FilterPolicyERZNS0_12_GLOBAL__N_129RegisterBuiltinFilterPoliciesERNS0_13ObjectLibraryERKNSt7__cxx1112basic_stringIcSt11char_traitsIcESaIcEEEE3$_2JSE_PSt10unique_ptrIS2_St14default_deleteIS2_EEPSC_EENSt9enable_ifIX16is_invocable_r_vIT_T0_DpT1_EESO_E4typeEOSP_DpOSQ_.exit", label %_ZNKSt14default_deleteIKN7rocksdb12FilterPolicyEEclEPS2_.exit.i.i.i.i.i

_ZNKSt14default_deleteIKN7rocksdb12FilterPolicyEEclEPS2_.exit.i.i.i.i.i: ; preds = %entry
  %vtable.i.i.i.i.i.i = load ptr, ptr %0, align 8
  %vfn.i.i.i.i.i.i = getelementptr inbounds i8, ptr %vtable.i.i.i.i.i.i, i64 8
  %1 = load ptr, ptr %vfn.i.i.i.i.i.i, align 8
  tail call void %1(ptr noundef nonnull align 8 dereferenceable(32) %0) #32
  %.pre.i.i.i = load ptr, ptr %__args1.val, align 8
  br label %"_ZSt10__invoke_rIPKN7rocksdb12FilterPolicyERZNS0_12_GLOBAL__N_129RegisterBuiltinFilterPoliciesERNS0_13ObjectLibraryERKNSt7__cxx1112basic_stringIcSt11char_traitsIcESaIcEEEE3$_2JSE_PSt10unique_ptrIS2_St14default_deleteIS2_EEPSC_EENSt9enable_ifIX16is_invocable_r_vIT_T0_DpT1_EESO_E4typeEOSP_DpOSQ_.exit"

"_ZSt10__invoke_rIPKN7rocksdb12FilterPolicyERZNS0_12_GLOBAL__N_129RegisterBuiltinFilterPoliciesERNS0_13ObjectLibraryERKNSt7__cxx1112basic_stringIcSt11char_traitsIcESaIcEEEE3$_2JSE_PSt10unique_ptrIS2_St14default_deleteIS2_EEPSC_EENSt9enable_ifIX16is_invocable_r_vIT_T0_DpT1_EESO_E4typeEOSP_DpOSQ_.exit": ; preds = %entry, %_ZNKSt14default_deleteIKN7rocksdb12FilterPolicyEEclEPS2_.exit.i.i.i.i.i
  %2 = phi ptr [ %call.i.i.i, %entry ], [ %.pre.i.i.i, %_ZNKSt14default_deleteIKN7rocksdb12FilterPolicyEEclEPS2_.exit.i.i.i.i.i ]
  ret ptr %2
}